target datalayout = "e-m:e-p270:32:32-p271:32:32-p272:64:64-i64:64-i128:128-f80:128-n8:16:32:64-S128"
target triple = "x86_64-pc-linux-gnu"

%struct._e_guid_t = type { i32, i16, i16, [8 x i8] }
%struct._dcerpc_info = type { ptr, i32, i64, i8, i8, i8, i32, i32, i32, i32, i32, i32, i32, i32, ptr, ptr, ptr, ptr, %struct.anon }
%struct.anon = type { i8, ptr, ptr, ptr, i8 }
%struct._dcerpc_call_value = type { %struct._e_guid_t, i16, %struct._e_guid_t, i16, i32, %struct.nstime_t, i32, i32, ptr, ptr, ptr, i32 }
%struct.nstime_t = type { i64, i32 }

@.str.1 = private unnamed_addr constant [29 x i8] c"%s:%u: failed assertion \22%s\22\00", align 1
@.str.2 = private unnamed_addr constant [32 x i8] c"epan/dissectors/packet-dcerpc.c\00", align 1
@hf_dcerpc_array_offset = internal global i32 0, align 4
@.str.6 = private unnamed_addr constant [21 x i8] c"val <= (4294967295U)\00", align 1
@hf_dcerpc_array_actual_count = internal global i32 0, align 4
@hf_dcerpc_array_max_count = internal global i32 0, align 4

; Function Attrs: null_pointer_is_valid sspstrong uwtable
define internal i32 @dissect_ndr_ucvarray_core(ptr noundef %0, i32 noundef %1, ptr noundef %2, ptr noundef %3, ptr noundef %4, ptr noundef %5, ptr noundef %6, ptr noundef %7) #0 {
  %9 = alloca ptr, align 8
  %10 = alloca i32, align 4
  %11 = alloca ptr, align 8
  %12 = alloca ptr, align 8
  %13 = alloca ptr, align 8
  %14 = alloca ptr, align 8
  %15 = alloca ptr, align 8
  %16 = alloca ptr, align 8
  %17 = alloca i32, align 4
  %18 = alloca i32, align 4
  %19 = alloca i32, align 4
  %20 = alloca i64, align 8
  store ptr %0, ptr %9, align 8
  store i32 %1, ptr %10, align 4
  store ptr %2, ptr %11, align 8
  store ptr %3, ptr %12, align 8
  store ptr %4, ptr %13, align 8
  store ptr %5, ptr %14, align 8
  store ptr %6, ptr %15, align 8
  store ptr %7, ptr %16, align 8
  call void @llvm.lifetime.start.p0(i64 4, ptr %17) #19
  call void @llvm.lifetime.start.p0(i64 4, ptr %18) #19
  call void @llvm.lifetime.start.p0(i64 4, ptr %19) #19
  store i32 4, ptr %19, align 4
  %21 = load ptr, ptr %13, align 8
  %22 = getelementptr inbounds nuw %struct._dcerpc_info, ptr %21, i32 0, i32 14
  %23 = load ptr, ptr %22, align 8
  %24 = getelementptr inbounds nuw %struct._dcerpc_call_value, ptr %23, i32 0, i32 11
  %25 = load i32, ptr %24, align 8
  %26 = and i32 %25, 1
  %27 = icmp ne i32 %26, 0
  br i1 %27, label %28, label %29

28:                                               ; preds = %8
  store i32 8, ptr %19, align 4
  br label %29

29:                                               ; preds = %28, %8
  %30 = load ptr, ptr %13, align 8
  %31 = getelementptr inbounds nuw %struct._dcerpc_info, ptr %30, i32 0, i32 4
  %32 = load i8, ptr %31, align 1, !range !11, !noundef !12
  %33 = trunc i8 %32 to i1
  br i1 %33, label %34, label %114

34:                                               ; preds = %29
  call void @llvm.lifetime.start.p0(i64 8, ptr %20) #19
  %35 = load i32, ptr %10, align 4
  store i32 %35, ptr %18, align 4
  %36 = load ptr, ptr %13, align 8
  %37 = getelementptr inbounds nuw %struct._dcerpc_info, ptr %36, i32 0, i32 4
  store i8 0, ptr %37, align 1
  %38 = load ptr, ptr %9, align 8
  %39 = load i32, ptr %10, align 4
  %40 = load ptr, ptr %11, align 8
  %41 = load ptr, ptr %12, align 8
  %42 = load ptr, ptr %13, align 8
  %43 = load ptr, ptr %14, align 8
  %44 = load i32, ptr @hf_dcerpc_array_max_count, align 4
  %45 = call i32 @dissect_ndr_uint3264(ptr noundef %38, i32 noundef %39, ptr noundef %40, ptr noundef %41, ptr noundef %42, ptr noundef %43, i32 noundef %44, ptr noundef %20)
  store i32 %45, ptr %10, align 4
  %46 = load i64, ptr %20, align 8
  %47 = icmp ule i64 %46, 4294967295
  br i1 %47, label %48, label %49

48:                                               ; preds = %34
  br label %51

49:                                               ; preds = %34
  call void (ptr, ...) @proto_report_dissector_bug(ptr noundef @.str.1, ptr noundef @.str.2, i32 noundef 2530, ptr noundef @.str.6) #24
  unreachable

50:                                               ; No predecessors!
  br label %51

51:                                               ; preds = %50, %48
  %52 = load i64, ptr %20, align 8
  %53 = trunc i64 %52 to i32
  %54 = load ptr, ptr %13, align 8
  %55 = getelementptr inbounds nuw %struct._dcerpc_info, ptr %54, i32 0, i32 7
  store i32 %53, ptr %55, align 8
  %56 = load i32, ptr %10, align 4
  %57 = load i32, ptr %19, align 4
  %58 = sub i32 %56, %57
  %59 = load ptr, ptr %13, align 8
  %60 = getelementptr inbounds nuw %struct._dcerpc_info, ptr %59, i32 0, i32 8
  store i32 %58, ptr %60, align 4
  %61 = load ptr, ptr %9, align 8
  %62 = load i32, ptr %10, align 4
  %63 = load ptr, ptr %11, align 8
  %64 = load ptr, ptr %12, align 8
  %65 = load ptr, ptr %13, align 8
  %66 = load ptr, ptr %14, align 8
  %67 = load i32, ptr @hf_dcerpc_array_offset, align 4
  %68 = call i32 @dissect_ndr_uint3264(ptr noundef %61, i32 noundef %62, ptr noundef %63, ptr noundef %64, ptr noundef %65, ptr noundef %66, i32 noundef %67, ptr noundef %20)
  store i32 %68, ptr %10, align 4
  %69 = load i64, ptr %20, align 8
  %70 = icmp ule i64 %69, 4294967295
  br i1 %70, label %71, label %72

71:                                               ; preds = %51
  br label %74

72:                                               ; preds = %51
  call void (ptr, ...) @proto_report_dissector_bug(ptr noundef @.str.1, ptr noundef @.str.2, i32 noundef 2535, ptr noundef @.str.6) #24
  unreachable

73:                                               ; No predecessors!
  br label %74

74:                                               ; preds = %73, %71
  %75 = load i64, ptr %20, align 8
  %76 = trunc i64 %75 to i32
  %77 = load ptr, ptr %13, align 8
  %78 = getelementptr inbounds nuw %struct._dcerpc_info, ptr %77, i32 0, i32 9
  store i32 %76, ptr %78, align 8
  %79 = load i32, ptr %10, align 4
  %80 = load i32, ptr %19, align 4
  %81 = sub i32 %79, %80
  %82 = load ptr, ptr %13, align 8
  %83 = getelementptr inbounds nuw %struct._dcerpc_info, ptr %82, i32 0, i32 10
  store i32 %81, ptr %83, align 4
  %84 = load ptr, ptr %9, align 8
  %85 = load i32, ptr %10, align 4
  %86 = load ptr, ptr %11, align 8
  %87 = load ptr, ptr %12, align 8
  %88 = load ptr, ptr %13, align 8
  %89 = load ptr, ptr %14, align 8
  %90 = load i32, ptr @hf_dcerpc_array_actual_count, align 4
  %91 = call i32 @dissect_ndr_uint3264(ptr noundef %84, i32 noundef %85, ptr noundef %86, ptr noundef %87, ptr noundef %88, ptr noundef %89, i32 noundef %90, ptr noundef %20)
  store i32 %91, ptr %10, align 4
  %92 = load i64, ptr %20, align 8
  %93 = icmp ule i64 %92, 4294967295
  br i1 %93, label %94, label %95

94:                                               ; preds = %74
  br label %97

95:                                               ; preds = %74
  call void (ptr, ...) @proto_report_dissector_bug(ptr noundef @.str.1, ptr noundef @.str.2, i32 noundef 2540, ptr noundef @.str.6) #24
  unreachable

96:                                               ; No predecessors!
  br label %97

97:                                               ; preds = %96, %94
  %98 = load i64, ptr %20, align 8
  %99 = trunc i64 %98 to i32
  %100 = load ptr, ptr %13, align 8
  %101 = getelementptr inbounds nuw %struct._dcerpc_info, ptr %100, i32 0, i32 11
  store i32 %99, ptr %101, align 8
  %102 = load i32, ptr %10, align 4
  %103 = load i32, ptr %19, align 4
  %104 = sub i32 %102, %103
  %105 = load ptr, ptr %13, align 8
  %106 = getelementptr inbounds nuw %struct._dcerpc_info, ptr %105, i32 0, i32 12
  store i32 %104, ptr %106, align 4
  %107 = load ptr, ptr %13, align 8
  %108 = getelementptr inbounds nuw %struct._dcerpc_info, ptr %107, i32 0, i32 4
  store i8 1, ptr %108, align 1
  %109 = load i32, ptr %10, align 4
  %110 = load i32, ptr %18, align 4
  %111 = sub i32 %109, %110
  %112 = load ptr, ptr %13, align 8
  %113 = getelementptr inbounds nuw %struct._dcerpc_info, ptr %112, i32 0, i32 6
  store i32 %111, ptr %113, align 4
  call void @llvm.lifetime.end.p0(i64 8, ptr %20) #19
  br label %193

114:                                              ; preds = %29
  %115 = load ptr, ptr %12, align 8
  %116 = load i32, ptr @hf_dcerpc_array_max_count, align 4
  %117 = load ptr, ptr %9, align 8
  %118 = load ptr, ptr %13, align 8
  %119 = getelementptr inbounds nuw %struct._dcerpc_info, ptr %118, i32 0, i32 8
  %120 = load i32, ptr %119, align 4
  %121 = load i32, ptr %19, align 4
  %122 = load ptr, ptr %13, align 8
  %123 = getelementptr inbounds nuw %struct._dcerpc_info, ptr %122, i32 0, i32 7
  %124 = load i32, ptr %123, align 8
  %125 = call ptr @proto_tree_add_uint(ptr noundef %115, i32 noundef %116, ptr noundef %117, i32 noundef %120, i32 noundef %121, i32 noundef %124)
  %126 = load ptr, ptr %12, align 8
  %127 = load i32, ptr @hf_dcerpc_array_offset, align 4
  %128 = load ptr, ptr %9, align 8
  %129 = load ptr, ptr %13, align 8
  %130 = getelementptr inbounds nuw %struct._dcerpc_info, ptr %129, i32 0, i32 10
  %131 = load i32, ptr %130, align 4
  %132 = load i32, ptr %19, align 4
  %133 = load ptr, ptr %13, align 8
  %134 = getelementptr inbounds nuw %struct._dcerpc_info, ptr %133, i32 0, i32 9
  %135 = load i32, ptr %134, align 8
  %136 = call ptr @proto_tree_add_uint(ptr noundef %126, i32 noundef %127, ptr noundef %128, i32 noundef %131, i32 noundef %132, i32 noundef %135)
  %137 = load ptr, ptr %12, align 8
  %138 = load i32, ptr @hf_dcerpc_array_actual_count, align 4
  %139 = load ptr, ptr %9, align 8
  %140 = load ptr, ptr %13, align 8
  %141 = getelementptr inbounds nuw %struct._dcerpc_info, ptr %140, i32 0, i32 12
  %142 = load i32, ptr %141, align 4
  %143 = load i32, ptr %19, align 4
  %144 = load ptr, ptr %13, align 8
  %145 = getelementptr inbounds nuw %struct._dcerpc_info, ptr %144, i32 0, i32 11
  %146 = load i32, ptr %145, align 8
  %147 = call ptr @proto_tree_add_uint(ptr noundef %137, i32 noundef %138, ptr noundef %139, i32 noundef %142, i32 noundef %143, i32 noundef %146)
  %148 = load ptr, ptr %16, align 8
  %149 = icmp ne ptr %148, null
  br i1 %149, label %150, label %162

150:                                              ; preds = %114
  %151 = load ptr, ptr %16, align 8
  %152 = load ptr, ptr %9, align 8
  %153 = load i32, ptr %10, align 4
  %154 = load ptr, ptr %13, align 8
  %155 = getelementptr inbounds nuw %struct._dcerpc_info, ptr %154, i32 0, i32 11
  %156 = load i32, ptr %155, align 8
  %157 = load ptr, ptr %11, align 8
  %158 = load ptr, ptr %12, align 8
  %159 = load ptr, ptr %13, align 8
  %160 = load ptr, ptr %14, align 8
  %161 = call i32 %151(ptr noundef %152, i32 noundef %153, i32 noundef %156, ptr noundef %157, ptr noundef %158, ptr noundef %159, ptr noundef %160)
  store i32 %161, ptr %10, align 4
  br label %192

162:                                              ; preds = %114
  %163 = load ptr, ptr %15, align 8
  %164 = icmp ne ptr %163, null
  br i1 %164, label %165, label %191

165:                                              ; preds = %162
  store i32 0, ptr %17, align 4
  br label %166

166:                                              ; preds = %187, %165
  %167 = load i32, ptr %17, align 4
  %168 = load ptr, ptr %13, align 8
  %169 = getelementptr inbounds nuw %struct._dcerpc_info, ptr %168, i32 0, i32 11
  %170 = load i32, ptr %169, align 8
  %171 = icmp ult i32 %167, %170
  br i1 %171, label %172, label %190

172:                                              ; preds = %166
  %173 = load i32, ptr %10, align 4
  store i32 %173, ptr %18, align 4
  %174 = load ptr, ptr %15, align 8
  %175 = load ptr, ptr %9, align 8
  %176 = load i32, ptr %10, align 4
  %177 = load ptr, ptr %11, align 8
  %178 = load ptr, ptr %12, align 8
  %179 = load ptr, ptr %13, align 8
  %180 = load ptr, ptr %14, align 8
  %181 = call i32 %174(ptr noundef %175, i32 noundef %176, ptr noundef %177, ptr noundef %178, ptr noundef %179, ptr noundef %180)
  store i32 %181, ptr %10, align 4
  %182 = load i32, ptr %18, align 4
  %183 = load i32, ptr %10, align 4
  %184 = icmp sge i32 %182, %183
  br i1 %184, label %185, label %186

185:                                              ; preds = %172
  br label %190

186:                                              ; preds = %172
  br label %187

187:                                              ; preds = %186
  %188 = load i32, ptr %17, align 4
  %189 = add i32 %188, 1
  store i32 %189, ptr %17, align 4
  br label %166, !llvm.loop !14

190:                                              ; preds = %185, %166
  br label %191

191:                                              ; preds = %190, %162
  br label %192

192:                                              ; preds = %191, %150
  br label %193

193:                                              ; preds = %192, %97
  %194 = load i32, ptr %10, align 4
  call void @llvm.lifetime.end.p0(i64 4, ptr %19) #19
  call void @llvm.lifetime.end.p0(i64 4, ptr %18) #19
  call void @llvm.lifetime.end.p0(i64 4, ptr %17) #19
  ret i32 %194
}