; Function Attrs: null_pointer_is_valid sspstrong uwtable
define internal fastcc i32 @dissect_ndr_ucvarray_core(ptr noundef %0, i32 noundef %1, ptr noundef %2, ptr noundef %3, ptr noundef %4, ptr noundef %5, ptr noundef readonly captures(address_is_null) %6, ptr noundef readonly captures(address_is_null) %7) unnamed_addr #0 {
  %9 = alloca i64, align 8
  %10 = getelementptr inbounds nuw i8, ptr %4, i64 64
  %11 = load ptr, ptr %10, align 8
  %12 = getelementptr inbounds nuw i8, ptr %11, i64 96
  %13 = load i32, ptr %12, align 8
  %14 = and i32 %13, 1
  %.not = icmp eq i32 %14, 0
  %spec.store.select = select i1 %.not, i32 4, i32 8
  %15 = getelementptr inbounds nuw i8, ptr %4, i64 25
  %16 = load i8, ptr %15, align 1, !range !11, !noundef !12
  %17 = trunc nuw i8 %16 to i1
  br i1 %17, label %18, label %51

18:                                               ; preds = %8
  call void @llvm.lifetime.start.p0(i64 8, ptr nonnull %9) #19
  store i8 0, ptr %15, align 1
  %19 = load i32, ptr @hf_dcerpc_array_max_count, align 4
  %20 = call i32 @dissect_ndr_uint3264(ptr noundef %0, i32 noundef %1, ptr noundef %2, ptr noundef %3, ptr noundef %4, ptr noundef %5, i32 noundef %19, ptr noundef nonnull %9)
  %21 = load i64, ptr %9, align 8
  %22 = icmp ult i64 %21, 4294967296
  br i1 %22, label %24, label %23

23:                                               ; preds = %18
  call void (ptr, ...) @proto_report_dissector_bug(ptr noundef nonnull @.str.1, ptr noundef nonnull @.str.2, i32 noundef 2530, ptr noundef nonnull @.str.6) #21
  unreachable

24:                                               ; preds = %18
  %25 = trunc nuw i64 %21 to i32
  %26 = getelementptr inbounds nuw i8, ptr %4, i64 32
  store i32 %25, ptr %26, align 8
  %27 = sub i32 %20, %spec.store.select
  %28 = getelementptr inbounds nuw i8, ptr %4, i64 36
  store i32 %27, ptr %28, align 4
  %29 = load i32, ptr @hf_dcerpc_array_offset, align 4
  %30 = call i32 @dissect_ndr_uint3264(ptr noundef %0, i32 noundef %20, ptr noundef %2, ptr noundef %3, ptr noundef %4, ptr noundef %5, i32 noundef %29, ptr noundef nonnull %9)
  %31 = load i64, ptr %9, align 8
  %32 = icmp ult i64 %31, 4294967296
  br i1 %32, label %34, label %33

33:                                               ; preds = %24
  call void (ptr, ...) @proto_report_dissector_bug(ptr noundef nonnull @.str.1, ptr noundef nonnull @.str.2, i32 noundef 2535, ptr noundef nonnull @.str.6) #21
  unreachable

34:                                               ; preds = %24
  %35 = trunc nuw i64 %31 to i32
  %36 = getelementptr inbounds nuw i8, ptr %4, i64 40
  store i32 %35, ptr %36, align 8
  %37 = sub i32 %30, %spec.store.select
  %38 = getelementptr inbounds nuw i8, ptr %4, i64 44
  store i32 %37, ptr %38, align 4
  %39 = load i32, ptr @hf_dcerpc_array_actual_count, align 4
  %40 = call i32 @dissect_ndr_uint3264(ptr noundef %0, i32 noundef %30, ptr noundef %2, ptr noundef %3, ptr noundef %4, ptr noundef %5, i32 noundef %39, ptr noundef nonnull %9)
  %41 = load i64, ptr %9, align 8
  %42 = icmp ult i64 %41, 4294967296
  br i1 %42, label %44, label %43

43:                                               ; preds = %34
  call void (ptr, ...) @proto_report_dissector_bug(ptr noundef nonnull @.str.1, ptr noundef nonnull @.str.2, i32 noundef 2540, ptr noundef nonnull @.str.6) #21
  unreachable

44:                                               ; preds = %34
  %45 = trunc nuw i64 %41 to i32
  %46 = getelementptr inbounds nuw i8, ptr %4, i64 48
  store i32 %45, ptr %46, align 8
  %47 = sub i32 %40, %spec.store.select
  %48 = getelementptr inbounds nuw i8, ptr %4, i64 52
  store i32 %47, ptr %48, align 4
  store i8 1, ptr %15, align 1
  %49 = sub i32 %40, %1
  %50 = getelementptr inbounds nuw i8, ptr %4, i64 28
  store i32 %49, ptr %50, align 4
  call void @llvm.lifetime.end.p0(i64 8, ptr nonnull %9) #19
  br label %.loopexit

51:                                               ; preds = %8
  %52 = load i32, ptr @hf_dcerpc_array_max_count, align 4
  %53 = getelementptr inbounds nuw i8, ptr %4, i64 36
  %54 = load i32, ptr %53, align 4
  %55 = getelementptr inbounds nuw i8, ptr %4, i64 32
  %56 = load i32, ptr %55, align 8
  %57 = tail call ptr @proto_tree_add_uint(ptr noundef %3, i32 noundef %52, ptr noundef %0, i32 noundef %54, i32 noundef %spec.store.select, i32 noundef %56)
  %58 = load i32, ptr @hf_dcerpc_array_offset, align 4
  %59 = getelementptr inbounds nuw i8, ptr %4, i64 44
  %60 = load i32, ptr %59, align 4
  %61 = getelementptr inbounds nuw i8, ptr %4, i64 40
  %62 = load i32, ptr %61, align 8
  %63 = tail call ptr @proto_tree_add_uint(ptr noundef %3, i32 noundef %58, ptr noundef %0, i32 noundef %60, i32 noundef %spec.store.select, i32 noundef %62)
  %64 = load i32, ptr @hf_dcerpc_array_actual_count, align 4
  %65 = getelementptr inbounds nuw i8, ptr %4, i64 52
  %66 = load i32, ptr %65, align 4
  %67 = getelementptr inbounds nuw i8, ptr %4, i64 48
  %68 = load i32, ptr %67, align 8
  %69 = tail call ptr @proto_tree_add_uint(ptr noundef %3, i32 noundef %64, ptr noundef %0, i32 noundef %66, i32 noundef %spec.store.select, i32 noundef %68)
  %.not84 = icmp eq ptr %7, null
  br i1 %.not84, label %73, label %70

70:                                               ; preds = %51
  %71 = load i32, ptr %67, align 8
  %72 = tail call i32 %7(ptr noundef %0, i32 noundef %1, i32 noundef %71, ptr noundef %2, ptr noundef %3, ptr noundef %4, ptr noundef %5)
  br label %.loopexit

73:                                               ; preds = %51
  %.not85 = icmp eq ptr %6, null
  br i1 %.not85, label %.loopexit, label %.preheader

.preheader:                                       ; preds = %73
  %74 = load i32, ptr %67, align 8
  %.not91 = icmp eq i32 %74, 0
  br i1 %.not91, label %.loopexit, label %.lr.ph

75:                                               ; preds = %.lr.ph
  %76 = add nuw i32 %.088, 1
  %77 = load i32, ptr %67, align 8
  %78 = icmp ult i32 %76, %77
  br i1 %78, label %.lr.ph, label %.loopexit, !llvm.loop !14

.lr.ph:                                           ; preds = %.preheader, %75
  %.088 = phi i32 [ %76, %75 ], [ 0, %.preheader ]
  %.187 = phi i32 [ %79, %75 ], [ %1, %.preheader ]
  %79 = tail call i32 %6(ptr noundef %0, i32 noundef %.187, ptr noundef %2, ptr noundef %3, ptr noundef %4, ptr noundef %5)
  %.not86 = icmp slt i32 %.187, %79
  br i1 %.not86, label %75, label %.loopexit

.loopexit:                                        ; preds = %.lr.ph, %75, %.preheader, %70, %73, %44
  %.076 = phi i32 [ %40, %44 ], [ %72, %70 ], [ %1, %73 ], [ %1, %.preheader ], [ %79, %75 ], [ %79, %.lr.ph ]
  ret i32 %.076
}